target datalayout = "e-m:e-p270:32:32-p271:32:32-p272:64:64-i64:64-i128:128-f80:128-n8:16:32:64-S128"
target triple = "x86_64-pc-linux-gnu"

%struct.preference = type { ptr, ptr, ptr, i32, i32, i32, %union.anon, %union.anon.0, %union.anon.1, %union.anon.2, %struct.pref_custom_cbs, ptr, ptr }
%union.anon = type { ptr }
%union.anon.0 = type { ptr }
%union.anon.1 = type { ptr }
%union.anon.2 = type { %struct.anon }
%struct.anon = type { ptr, i8 }
%struct.pref_custom_cbs = type { ptr, ptr, ptr, ptr, ptr, ptr, ptr }

@.str = private unnamed_addr constant [5 x i8] c"Epan\00", align 1
@.str.1 = private unnamed_addr constant [13 x i8] c"epan/prefs.c\00", align 1
@.str.8 = private unnamed_addr constant [31 x i8] c"assertion \22not reached\22 failed\00", align 1
@__func__.pref_clean_stash = private unnamed_addr constant [17 x i8] c"pref_clean_stash\00", align 1

; Function Attrs: null_pointer_is_valid sspstrong uwtable
define i32 @pref_clean_stash(ptr noundef %0, ptr noundef %1) #1 {
  %3 = alloca ptr, align 8
  %4 = alloca ptr, align 8
  store ptr %0, ptr %3, align 8
  store ptr %1, ptr %4, align 8
  %5 = load ptr, ptr %3, align 8
  %6 = getelementptr inbounds nuw %struct.preference, ptr %5, i32 0, i32 4
  %7 = load i32, ptr %6, align 4
  switch i32 %7, label %47 [
    i32 1, label %47
    i32 2, label %47
    i32 4, label %47
    i32 8, label %8
    i32 128, label %8
    i32 16384, label %8
    i32 2048, label %8
    i32 32768, label %8
    i32 131072, label %8
    i32 8192, label %20
    i32 16, label %20
    i32 32, label %33
    i32 64, label %33
    i32 256, label %33
    i32 512, label %33
    i32 65536, label %34
    i32 1024, label %46
  ]

8:                                                ; preds = %2, %2, %2, %2, %2, %2
  %9 = load ptr, ptr %3, align 8
  %10 = getelementptr inbounds nuw %struct.preference, ptr %9, i32 0, i32 7
  %11 = load ptr, ptr %10, align 8
  %12 = icmp ne ptr %11, null
  br i1 %12, label %13, label %19

13:                                               ; preds = %8
  %14 = load ptr, ptr %3, align 8
  %15 = getelementptr inbounds nuw %struct.preference, ptr %14, i32 0, i32 7
  %16 = load ptr, ptr %15, align 8
  call void @g_free(ptr noundef %16)
  %17 = load ptr, ptr %3, align 8
  %18 = getelementptr inbounds nuw %struct.preference, ptr %17, i32 0, i32 7
  store ptr null, ptr %18, align 8
  br label %19

19:                                               ; preds = %13, %8
  br label %47

20:                                               ; preds = %2, %2
  %21 = load ptr, ptr %3, align 8
  %22 = getelementptr inbounds nuw %struct.preference, ptr %21, i32 0, i32 7
  %23 = load ptr, ptr %22, align 8
  %24 = icmp ne ptr %23, null
  br i1 %24, label %25, label %32

25:                                               ; preds = %20
  %26 = call ptr @wmem_epan_scope()
  %27 = load ptr, ptr %3, align 8
  %28 = getelementptr inbounds nuw %struct.preference, ptr %27, i32 0, i32 7
  %29 = load ptr, ptr %28, align 8
  call void @wmem_free(ptr noundef %26, ptr noundef %29)
  %30 = load ptr, ptr %3, align 8
  %31 = getelementptr inbounds nuw %struct.preference, ptr %30, i32 0, i32 7
  store ptr null, ptr %31, align 8
  br label %32

32:                                               ; preds = %25, %20
  br label %47

33:                                               ; preds = %2, %2, %2, %2
  br label %47

34:                                               ; preds = %2
  %35 = load ptr, ptr %3, align 8
  %36 = getelementptr inbounds nuw %struct.preference, ptr %35, i32 0, i32 7
  %37 = load ptr, ptr %36, align 8
  %38 = icmp ne ptr %37, null
  br i1 %38, label %39, label %45

39:                                               ; preds = %34
  %40 = load ptr, ptr %3, align 8
  %41 = getelementptr inbounds nuw %struct.preference, ptr %40, i32 0, i32 7
  %42 = load ptr, ptr %41, align 8
  call void @g_list_free(ptr noundef %42)
  %43 = load ptr, ptr %3, align 8
  %44 = getelementptr inbounds nuw %struct.preference, ptr %43, i32 0, i32 7
  store ptr null, ptr %44, align 8
  br label %45

45:                                               ; preds = %39, %34
  br label %47

46:                                               ; preds = %2
  call void (ptr, i32, ptr, i64, ptr, ptr, ...) @ws_log_fatal_full(ptr noundef @.str, i32 noundef 7, ptr noundef @.str.1, i64 noundef 2412, ptr noundef @__func__.pref_clean_stash, ptr noundef @.str.8) #18
  unreachable

47:                                               ; preds = %2, %45, %33, %32, %2, %2, %2, %19
  ret i32 0
}