; Function Attrs: null_pointer_is_valid sspstrong uwtable
define noundef i32 @pref_clean_stash(ptr noundef captures(none) %0, ptr noundef readnone captures(none) %1) local_unnamed_addr #1 {
  %3 = getelementptr inbounds nuw i8, ptr %0, i64 28
  %4 = load i32, ptr %3, align 4
  switch i32 %4, label %20 [
    i32 1024, label %19
    i32 65536, label %15
    i32 16, label %9
    i32 8, label %5
    i32 128, label %5
    i32 16384, label %5
    i32 2048, label %5
    i32 32768, label %5
    i32 131072, label %5
    i32 8192, label %9
  ]

5:                                                ; preds = %2, %2, %2, %2, %2, %2
  %6 = getelementptr inbounds nuw i8, ptr %0, i64 48
  %7 = load ptr, ptr %6, align 8
  %.not = icmp eq ptr %7, null
  br i1 %.not, label %20, label %8

8:                                                ; preds = %5
  tail call void @g_free(ptr noundef nonnull %7)
  store ptr null, ptr %6, align 8
  br label %20

9:                                                ; preds = %2, %2
  %10 = getelementptr inbounds nuw i8, ptr %0, i64 48
  %11 = load ptr, ptr %10, align 8
  %.not11 = icmp eq ptr %11, null
  br i1 %.not11, label %20, label %12

12:                                               ; preds = %9
  %13 = tail call ptr @wmem_epan_scope()
  %14 = load ptr, ptr %10, align 8
  tail call void @wmem_free(ptr noundef %13, ptr noundef %14)
  store ptr null, ptr %10, align 8
  br label %20

15:                                               ; preds = %2
  %16 = getelementptr inbounds nuw i8, ptr %0, i64 48
  %17 = load ptr, ptr %16, align 8
  %.not12 = icmp eq ptr %17, null
  br i1 %.not12, label %20, label %18

18:                                               ; preds = %15
  tail call void @g_list_free(ptr noundef nonnull %17)
  store ptr null, ptr %16, align 8
  br label %20

19:                                               ; preds = %2
  tail call void (ptr, i32, ptr, i64, ptr, ptr, ...) @ws_log_fatal_full(ptr noundef nonnull @.str, i32 noundef 7, ptr noundef nonnull @.str.1, i64 noundef 2412, ptr noundef nonnull @__func__.pref_clean_stash, ptr noundef nonnull @.str.8) #26
  unreachable

20:                                               ; preds = %15, %18, %9, %12, %5, %8, %2
  ret i32 0
}